; Function Attrs: nofree norecurse nosync nounwind memory(readwrite, inaccessiblemem: none) uwtable
define hidden i32 @mbedtls_asn1_write_bitstring(ptr noundef captures(none) %0, ptr noundef %1, ptr noundef readonly captures(none) %2, i64 noundef %3) local_unnamed_addr #6 {
  %5 = add i64 %3, 7
  %6 = lshr i64 %5, 3
  %7 = and i64 %5, -8
  %8 = sub i64 %7, %3
  %9 = load ptr, ptr %0, align 8, !tbaa !5
  %10 = icmp ult ptr %9, %1
  br i1 %10, label %mbedtls_asn1_write_len_and_tag.exit, label %11

11:                                               ; preds = %4
  %12 = ptrtoint ptr %9 to i64
  %13 = ptrtoint ptr %1 to i64
  %14 = sub i64 %12, %13
  %15 = add nuw nsw i64 %6, 1
  %.not = icmp ugt i64 %14, %6
  br i1 %.not, label %16, label %mbedtls_asn1_write_len_and_tag.exit

16:                                               ; preds = %11
  %.not29 = icmp ult i64 %5, 8
  br i1 %.not29, label %.thread30, label %19

.thread30:                                        ; preds = %16
  %17 = trunc i64 %8 to i8
  %18 = getelementptr inbounds i8, ptr %9, i64 -1
  store ptr %18, ptr %0, align 8, !tbaa !5
  store i8 %17, ptr %18, align 1, !tbaa !10
  br label %.loopexit.i.i

19:                                               ; preds = %16
  %20 = add nsw i64 %6, -1
  %21 = getelementptr inbounds nuw i8, ptr %2, i64 %20
  %22 = load i8, ptr %21, align 1, !tbaa !10
  %23 = trunc i64 %8 to i32
  %notmask = shl nsw i32 -1, %23
  %24 = trunc i32 %notmask to i8
  %25 = and i8 %22, %24
  %26 = getelementptr inbounds i8, ptr %9, i64 -1
  store ptr %26, ptr %0, align 8, !tbaa !5
  store i8 %25, ptr %26, align 1, !tbaa !10
  %27 = load ptr, ptr %0, align 8, !tbaa !5
  %28 = sub nsw i64 1, %6
  %29 = getelementptr inbounds i8, ptr %27, i64 %28
  store ptr %29, ptr %0, align 8, !tbaa !5
  tail call void @llvm.memcpy.p0.p0.i64(ptr align 1 %29, ptr align 1 %2, i64 %20, i1 false)
  %.pre = load ptr, ptr %0, align 8, !tbaa !5
  %30 = trunc i64 %8 to i8
  %31 = getelementptr inbounds i8, ptr %.pre, i64 -1
  store ptr %31, ptr %0, align 8, !tbaa !5
  store i8 %30, ptr %31, align 1, !tbaa !10
  %32 = icmp ugt i64 %5, 34359738359
  br i1 %32, label %mbedtls_asn1_write_len_and_tag.exit, label %33

33:                                               ; preds = %19
  %34 = icmp samesign ugt i64 %5, 1015
  br i1 %34, label %.preheader23.i.i, label %.loopexit.i.i

.preheader23.i.i:                                 ; preds = %33, %.preheader23.i.i
  %.025.i.i = phi i64 [ %36, %.preheader23.i.i ], [ %15, %33 ]
  %.124.i.i = phi i32 [ %35, %.preheader23.i.i ], [ 1, %33 ]
  %35 = add nuw nsw i32 %.124.i.i, 1
  %36 = lshr i64 %.025.i.i, 8
  %.not.i.i = icmp samesign ult i64 %.025.i.i, 256
  br i1 %.not.i.i, label %.loopexit.i.i, label %.preheader23.i.i, !llvm.loop !3

.loopexit.i.i:                                    ; preds = %.preheader23.i.i, %.thread30, %33
  %.017.i.i = phi i32 [ 1, %33 ], [ 1, %.thread30 ], [ %35, %.preheader23.i.i ]
  %37 = zext nneg i32 %.017.i.i to i64
  %38 = load ptr, ptr %0, align 8, !tbaa !5
  %39 = ptrtoint ptr %38 to i64
  %40 = sub i64 %39, %13
  %41 = icmp slt i64 %40, %37
  br i1 %41, label %mbedtls_asn1_write_len_and_tag.exit, label %.preheader.i.i

.preheader.i.i:                                   ; preds = %.loopexit.i.i, %.preheader.i.i
  %.018.i.i = phi i64 [ %45, %.preheader.i.i ], [ %15, %.loopexit.i.i ]
  %42 = trunc i64 %.018.i.i to i8
  %43 = load ptr, ptr %0, align 8, !tbaa !5
  %44 = getelementptr inbounds i8, ptr %43, i64 -1
  store ptr %44, ptr %0, align 8, !tbaa !5
  store i8 %42, ptr %44, align 1, !tbaa !10
  %45 = lshr i64 %.018.i.i, 8
  %.not22.i.i = icmp samesign ult i64 %.018.i.i, 256
  br i1 %.not22.i.i, label %46, label %.preheader.i.i, !llvm.loop !11

46:                                               ; preds = %.preheader.i.i
  %47 = icmp samesign ugt i32 %.017.i.i, 1
  br i1 %47, label %48, label %mbedtls_asn1_write_len.exit.i

48:                                               ; preds = %46
  %49 = trunc i32 %.017.i.i to i8
  %50 = add i8 %49, 127
  %51 = load ptr, ptr %0, align 8, !tbaa !5
  %52 = getelementptr inbounds i8, ptr %51, i64 -1
  store ptr %52, ptr %0, align 8, !tbaa !5
  store i8 %50, ptr %52, align 1, !tbaa !10
  br label %mbedtls_asn1_write_len.exit.i

mbedtls_asn1_write_len.exit.i:                    ; preds = %48, %46
  %53 = load ptr, ptr %0, align 8, !tbaa !5
  %54 = ptrtoint ptr %53 to i64
  %55 = sub i64 %54, %13
  %56 = icmp slt i64 %55, 1
  br i1 %56, label %mbedtls_asn1_write_len_and_tag.exit, label %57

57:                                               ; preds = %mbedtls_asn1_write_len.exit.i
  %58 = getelementptr inbounds i8, ptr %53, i64 -1
  store ptr %58, ptr %0, align 8, !tbaa !5
  store i8 3, ptr %58, align 1, !tbaa !10
  %59 = trunc nuw i64 %15 to i32
  %60 = add i32 %59, 1
  %61 = add i32 %60, %.017.i.i
  br label %mbedtls_asn1_write_len_and_tag.exit

mbedtls_asn1_write_len_and_tag.exit:              ; preds = %57, %mbedtls_asn1_write_len.exit.i, %.loopexit.i.i, %19, %4, %11
  %.0 = phi i32 [ -108, %11 ], [ -108, %4 ], [ %61, %57 ], [ -108, %.loopexit.i.i ], [ -100, %19 ], [ -108, %mbedtls_asn1_write_len.exit.i ]
  ret i32 %.0
}